; Function Attrs: null_pointer_is_valid sspstrong uwtable
define internal noundef zeroext i1 @parseLogFileHeaderLine_bitRate(ptr noundef writeonly captures(none) %0, ptr noundef %1, ptr noundef writeonly captures(none) %2, ptr noundef writeonly captures(none) %3) #0 {
  %5 = alloca i32, align 4
  call void @llvm.lifetime.start.p0(i64 4, ptr nonnull %5) #10
  %6 = call zeroext i1 @ws_strtou32(ptr noundef %1, ptr noundef null, ptr noundef nonnull %5)
  br i1 %6, label %9, label %7

7:                                                ; preds = %4
  store i32 -13, ptr %2, align 4
  %8 = call noalias ptr (ptr, ptr, ...) @wmem_strdup_printf(ptr noundef null, ptr noundef nonnull @.str.28, ptr noundef nonnull @.str.39)
  store ptr %8, ptr %3, align 8
  br label %parseUnsigned.exit

9:                                                ; preds = %4
  %10 = getelementptr inbounds nuw i8, ptr %0, i64 92
  %11 = load i32, ptr %5, align 4
  store i32 %11, ptr %10, align 4
  br label %parseUnsigned.exit

parseUnsigned.exit:                               ; preds = %7, %9
  call void @llvm.lifetime.end.p0(i64 4, ptr nonnull %5) #10
  ret i1 %6
}